target datalayout = "e-m:e-p270:32:32-p271:32:32-p272:64:64-i64:64-i128:128-f80:128-n8:16:32:64-S128"
target triple = "x86_64-pc-linux-gnu"

%struct.t_idef = type { i32, i32, ptr, ptr, float, ptr, ptr, [95 x %struct.t_ilist], i32 }
%struct.t_ilist = type { i32, ptr, i32 }

@.str.49 = private unnamed_addr constant [123 x i8] c"generated/home/dtcxzyw/WorkSpace/Projects/compilers/llvm-opt-benchmark/bench/gromacs/gromacs/src/gromacs/topology/idef.cpp\00", align 1
@.str.64 = private unnamed_addr constant [15 x i8] c"idef->functype\00", align 1
@.str.65 = private unnamed_addr constant [14 x i8] c"idef->iparams\00", align 1
@.str.66 = private unnamed_addr constant [21 x i8] c"idef->iparams_posres\00", align 1
@.str.67 = private unnamed_addr constant [23 x i8] c"idef->iparams_fbposres\00", align 1
@.str.68 = private unnamed_addr constant [19 x i8] c"idef->il[f].iatoms\00", align 1

; Function Attrs: mustprogress nounwind uwtable
define void @_Z9init_idefP6t_idef(ptr noundef %0) #5 {
  %2 = alloca ptr, align 8
  %3 = alloca i32, align 4
  store ptr %0, ptr %2, align 8, !tbaa !113
  %4 = load ptr, ptr %2, align 8, !tbaa !113
  %5 = getelementptr inbounds nuw %struct.t_idef, ptr %4, i32 0, i32 0
  store i32 0, ptr %5, align 8, !tbaa !117
  %6 = load ptr, ptr %2, align 8, !tbaa !113
  %7 = getelementptr inbounds nuw %struct.t_idef, ptr %6, i32 0, i32 1
  store i32 0, ptr %7, align 4, !tbaa !115
  %8 = load ptr, ptr %2, align 8, !tbaa !113
  %9 = getelementptr inbounds nuw %struct.t_idef, ptr %8, i32 0, i32 2
  store ptr null, ptr %9, align 8, !tbaa !118
  %10 = load ptr, ptr %2, align 8, !tbaa !113
  %11 = getelementptr inbounds nuw %struct.t_idef, ptr %10, i32 0, i32 3
  store ptr null, ptr %11, align 8, !tbaa !119
  %12 = load ptr, ptr %2, align 8, !tbaa !113
  %13 = getelementptr inbounds nuw %struct.t_idef, ptr %12, i32 0, i32 4
  store float 0.000000e+00, ptr %13, align 8, !tbaa !121
  %14 = load ptr, ptr %2, align 8, !tbaa !113
  %15 = getelementptr inbounds nuw %struct.t_idef, ptr %14, i32 0, i32 5
  store ptr null, ptr %15, align 8, !tbaa !131
  %16 = load ptr, ptr %2, align 8, !tbaa !113
  %17 = getelementptr inbounds nuw %struct.t_idef, ptr %16, i32 0, i32 6
  store ptr null, ptr %17, align 8, !tbaa !132
  call void @llvm.lifetime.start.p0(i64 4, ptr %3) #17
  store i32 0, ptr %3, align 4, !tbaa !9
  br label %18

18:                                               ; preds = %41, %1
  %19 = load i32, ptr %3, align 4, !tbaa !9
  %20 = icmp slt i32 %19, 95
  br i1 %20, label %22, label %21

21:                                               ; preds = %18
  call void @llvm.lifetime.end.p0(i64 4, ptr %3) #17
  br label %44

22:                                               ; preds = %18
  %23 = load ptr, ptr %2, align 8, !tbaa !113
  %24 = getelementptr inbounds nuw %struct.t_idef, ptr %23, i32 0, i32 7
  %25 = load i32, ptr %3, align 4, !tbaa !9
  %26 = sext i32 %25 to i64
  %27 = getelementptr inbounds [95 x %struct.t_ilist], ptr %24, i64 0, i64 %26
  %28 = getelementptr inbounds nuw %struct.t_ilist, ptr %27, i32 0, i32 1
  store ptr null, ptr %28, align 8, !tbaa !126
  %29 = load ptr, ptr %2, align 8, !tbaa !113
  %30 = getelementptr inbounds nuw %struct.t_idef, ptr %29, i32 0, i32 7
  %31 = load i32, ptr %3, align 4, !tbaa !9
  %32 = sext i32 %31 to i64
  %33 = getelementptr inbounds [95 x %struct.t_ilist], ptr %30, i64 0, i64 %32
  %34 = getelementptr inbounds nuw %struct.t_ilist, ptr %33, i32 0, i32 2
  store i32 0, ptr %34, align 8, !tbaa !133
  %35 = load ptr, ptr %2, align 8, !tbaa !113
  %36 = getelementptr inbounds nuw %struct.t_idef, ptr %35, i32 0, i32 7
  %37 = load i32, ptr %3, align 4, !tbaa !9
  %38 = sext i32 %37 to i64
  %39 = getelementptr inbounds [95 x %struct.t_ilist], ptr %36, i64 0, i64 %38
  %40 = getelementptr inbounds nuw %struct.t_ilist, ptr %39, i32 0, i32 0
  store i32 0, ptr %40, align 8, !tbaa !130
  br label %41

41:                                               ; preds = %22
  %42 = load i32, ptr %3, align 4, !tbaa !9
  %43 = add nsw i32 %42, 1
  store i32 %43, ptr %3, align 4, !tbaa !9
  br label %18, !llvm.loop !134

44:                                               ; preds = %21
  ret void
}

; Function Attrs: inlinehint mustprogress uwtable
define internal void @_ZL14gmx_sfree_implI9t_iparamsEvPKcS2_iPT_(ptr noundef %0, ptr noundef %1, i32 noundef %2, ptr noundef %3) #13 {
  %5 = alloca ptr, align 8
  %6 = alloca ptr, align 8
  %7 = alloca i32, align 4
  %8 = alloca ptr, align 8
  store ptr %0, ptr %5, align 8, !tbaa !42
  store ptr %1, ptr %6, align 8, !tbaa !42
  store i32 %2, ptr %7, align 4, !tbaa !9
  store ptr %3, ptr %8, align 8, !tbaa !11
  %9 = load ptr, ptr %5, align 8, !tbaa !42
  %10 = load ptr, ptr %6, align 8, !tbaa !42
  %11 = load i32, ptr %7, align 4, !tbaa !9
  %12 = load ptr, ptr %8, align 8, !tbaa !11
  call void @_Z9save_freePKcS0_iPv(ptr noundef %9, ptr noundef %10, i32 noundef %11, ptr noundef %12)
  ret void
}

; Function Attrs: inlinehint mustprogress uwtable
define internal void @_ZL14gmx_sfree_implIiEvPKcS1_iPT_(ptr noundef %0, ptr noundef %1, i32 noundef %2, ptr noundef %3) #13 {
  %5 = alloca ptr, align 8
  %6 = alloca ptr, align 8
  %7 = alloca i32, align 4
  %8 = alloca ptr, align 8
  store ptr %0, ptr %5, align 8, !tbaa !42
  store ptr %1, ptr %6, align 8, !tbaa !42
  store i32 %2, ptr %7, align 4, !tbaa !9
  store ptr %3, ptr %8, align 8, !tbaa !91
  %9 = load ptr, ptr %5, align 8, !tbaa !42
  %10 = load ptr, ptr %6, align 8, !tbaa !42
  %11 = load i32, ptr %7, align 4, !tbaa !9
  %12 = load ptr, ptr %8, align 8, !tbaa !91
  call void @_Z9save_freePKcS0_iPv(ptr noundef %9, ptr noundef %10, i32 noundef %11, ptr noundef %12)
  ret void
}

; Function Attrs: mustprogress uwtable
define void @_Z9done_idefP6t_idef(ptr noundef %0) #0 {
  %2 = alloca ptr, align 8
  %3 = alloca i32, align 4
  store ptr %0, ptr %2, align 8, !tbaa !113
  %4 = load ptr, ptr %2, align 8, !tbaa !113
  %5 = getelementptr inbounds nuw %struct.t_idef, ptr %4, i32 0, i32 2
  %6 = load ptr, ptr %5, align 8, !tbaa !118
  call void @_ZL14gmx_sfree_implIiEvPKcS1_iPT_(ptr noundef @.str.64, ptr noundef @.str.49, i32 noundef 529, ptr noundef %6)
  %7 = load ptr, ptr %2, align 8, !tbaa !113
  %8 = getelementptr inbounds nuw %struct.t_idef, ptr %7, i32 0, i32 3
  %9 = load ptr, ptr %8, align 8, !tbaa !119
  call void @_ZL14gmx_sfree_implI9t_iparamsEvPKcS2_iPT_(ptr noundef @.str.65, ptr noundef @.str.49, i32 noundef 530, ptr noundef %9)
  %10 = load ptr, ptr %2, align 8, !tbaa !113
  %11 = getelementptr inbounds nuw %struct.t_idef, ptr %10, i32 0, i32 5
  %12 = load ptr, ptr %11, align 8, !tbaa !131
  call void @_ZL14gmx_sfree_implI9t_iparamsEvPKcS2_iPT_(ptr noundef @.str.66, ptr noundef @.str.49, i32 noundef 531, ptr noundef %12)
  %13 = load ptr, ptr %2, align 8, !tbaa !113
  %14 = getelementptr inbounds nuw %struct.t_idef, ptr %13, i32 0, i32 6
  %15 = load ptr, ptr %14, align 8, !tbaa !132
  call void @_ZL14gmx_sfree_implI9t_iparamsEvPKcS2_iPT_(ptr noundef @.str.67, ptr noundef @.str.49, i32 noundef 532, ptr noundef %15)
  call void @llvm.lifetime.start.p0(i64 4, ptr %3) #17
  store i32 0, ptr %3, align 4, !tbaa !9
  br label %16

16:                                               ; preds = %28, %1
  %17 = load i32, ptr %3, align 4, !tbaa !9
  %18 = icmp slt i32 %17, 95
  br i1 %18, label %20, label %19

19:                                               ; preds = %16
  call void @llvm.lifetime.end.p0(i64 4, ptr %3) #17
  br label %31

20:                                               ; preds = %16
  %21 = load ptr, ptr %2, align 8, !tbaa !113
  %22 = getelementptr inbounds nuw %struct.t_idef, ptr %21, i32 0, i32 7
  %23 = load i32, ptr %3, align 4, !tbaa !9
  %24 = sext i32 %23 to i64
  %25 = getelementptr inbounds [95 x %struct.t_ilist], ptr %22, i64 0, i64 %24
  %26 = getelementptr inbounds nuw %struct.t_ilist, ptr %25, i32 0, i32 1
  %27 = load ptr, ptr %26, align 8, !tbaa !126
  call void @_ZL14gmx_sfree_implIiEvPKcS1_iPT_(ptr noundef @.str.68, ptr noundef @.str.49, i32 noundef 535, ptr noundef %27)
  br label %28

28:                                               ; preds = %20
  %29 = load i32, ptr %3, align 4, !tbaa !9
  %30 = add nsw i32 %29, 1
  store i32 %30, ptr %3, align 4, !tbaa !9
  br label %16, !llvm.loop !233

31:                                               ; preds = %19
  %32 = load ptr, ptr %2, align 8, !tbaa !113
  call void @_Z9init_idefP6t_idef(ptr noundef %32)
  ret void
}