; Function Attrs: mustprogress uwtable
define void @_Z9done_idefP6t_idef(ptr noundef captures(none) %0) local_unnamed_addr #0 {
  %2 = getelementptr inbounds nuw i8, ptr %0, i64 8
  %3 = load ptr, ptr %2, align 8, !tbaa !45
  tail call void @_Z9save_freePKcS0_iPv(ptr noundef nonnull @.str.64, ptr noundef nonnull @.str.49, i32 noundef 529, ptr noundef %3)
  %4 = getelementptr inbounds nuw i8, ptr %0, i64 16
  %5 = load ptr, ptr %4, align 8, !tbaa !46
  tail call void @_Z9save_freePKcS0_iPv(ptr noundef nonnull @.str.65, ptr noundef nonnull @.str.49, i32 noundef 530, ptr noundef %5)
  %6 = getelementptr inbounds nuw i8, ptr %0, i64 32
  %7 = load ptr, ptr %6, align 8, !tbaa !94
  tail call void @_Z9save_freePKcS0_iPv(ptr noundef nonnull @.str.66, ptr noundef nonnull @.str.49, i32 noundef 531, ptr noundef %7)
  %8 = getelementptr inbounds nuw i8, ptr %0, i64 40
  %9 = load ptr, ptr %8, align 8, !tbaa !95
  tail call void @_Z9save_freePKcS0_iPv(ptr noundef nonnull @.str.67, ptr noundef nonnull @.str.49, i32 noundef 532, ptr noundef %9)
  %invariant.gep = getelementptr inbounds nuw i8, ptr %0, i64 56
  br label %16

10:                                               ; preds = %16
  %11 = getelementptr inbounds nuw i8, ptr %0, i64 48
  tail call void @llvm.memset.p0.i64(ptr noundef nonnull align 8 dereferenceable(28) %0, i8 0, i64 28, i1 false)
  tail call void @llvm.memset.p0.i64(ptr noundef nonnull align 8 dereferenceable(16) %6, i8 0, i64 16, i1 false)
  br label %12

12:                                               ; preds = %12, %10
  %indvars.iv.i = phi i64 [ 0, %10 ], [ %indvars.iv.next.i, %12 ]
  %13 = getelementptr inbounds nuw [95 x %struct.t_ilist], ptr %11, i64 0, i64 %indvars.iv.i
  %14 = getelementptr inbounds nuw i8, ptr %13, i64 8
  store ptr null, ptr %14, align 8, !tbaa !52
  %15 = getelementptr inbounds nuw i8, ptr %13, i64 16
  store i32 0, ptr %15, align 8, !tbaa !56
  store i32 0, ptr %13, align 8, !tbaa !50
  %indvars.iv.next.i = add nuw nsw i64 %indvars.iv.i, 1
  %exitcond.not.i = icmp eq i64 %indvars.iv.next.i, 95
  br i1 %exitcond.not.i, label %_Z9init_idefP6t_idef.exit, label %12, !llvm.loop !57

_Z9init_idefP6t_idef.exit:                        ; preds = %12
  ret void

16:                                               ; preds = %1, %16
  %indvars.iv = phi i64 [ 0, %1 ], [ %indvars.iv.next, %16 ]
  %17 = mul nuw nsw i64 %indvars.iv, 24
  %gep = getelementptr inbounds nuw i8, ptr %invariant.gep, i64 %17
  %18 = load ptr, ptr %gep, align 8, !tbaa !52
  tail call void @_Z9save_freePKcS0_iPv(ptr noundef nonnull @.str.68, ptr noundef nonnull @.str.49, i32 noundef 535, ptr noundef %18)
  %indvars.iv.next = add nuw nsw i64 %indvars.iv, 1
  %exitcond.not = icmp eq i64 %indvars.iv.next, 95
  br i1 %exitcond.not, label %10, label %16, !llvm.loop !96
}